target datalayout = "e-m:e-p270:32:32-p271:32:32-p272:64:64-i64:64-i128:128-f80:128-n8:16:32:64-S128"
target triple = "x86_64-pc-linux-gnu"

%struct.UNewTrie = type { [34848 x i32], ptr, i32, i32, i32, i32, i8, i8, i8, i8, [34849 x i32] }

; Function Attrs: mustprogress uwtable
define ptr @utrie_open_77(ptr noundef %0, ptr noundef %1, i32 noundef %2, i32 noundef %3, i32 noundef %4, i8 noundef signext %5) #0 {
  %7 = alloca ptr, align 8
  %8 = alloca ptr, align 8
  %9 = alloca ptr, align 8
  %10 = alloca i32, align 4
  %11 = alloca i32, align 4
  %12 = alloca i32, align 4
  %13 = alloca i8, align 1
  %14 = alloca ptr, align 8
  %15 = alloca i32, align 4
  %16 = alloca i32, align 4
  %17 = alloca i32, align 4
  store ptr %0, ptr %8, align 8, !tbaa !3
  store ptr %1, ptr %9, align 8, !tbaa !8
  store i32 %2, ptr %10, align 4, !tbaa !10
  store i32 %3, ptr %11, align 4, !tbaa !10
  store i32 %4, ptr %12, align 4, !tbaa !10
  store i8 %5, ptr %13, align 1, !tbaa !12
  call void @llvm.lifetime.start.p0(i64 8, ptr %14) #8
  call void @llvm.lifetime.start.p0(i64 4, ptr %15) #8
  call void @llvm.lifetime.start.p0(i64 4, ptr %16) #8
  %18 = load i32, ptr %10, align 4, !tbaa !10
  %19 = icmp slt i32 %18, 32
  br i1 %19, label %26, label %20

20:                                               ; preds = %6
  %21 = load i8, ptr %13, align 1, !tbaa !12
  %22 = icmp ne i8 %21, 0
  br i1 %22, label %23, label %27

23:                                               ; preds = %20
  %24 = load i32, ptr %10, align 4, !tbaa !10
  %25 = icmp slt i32 %24, 1024
  br i1 %25, label %26, label %27

26:                                               ; preds = %23, %6
  store ptr null, ptr %7, align 8
  store i32 1, ptr %17, align 4
  br label %118

27:                                               ; preds = %23, %20
  %28 = load ptr, ptr %8, align 8, !tbaa !3
  %29 = icmp ne ptr %28, null
  br i1 %29, label %30, label %32

30:                                               ; preds = %27
  %31 = load ptr, ptr %8, align 8, !tbaa !3
  store ptr %31, ptr %14, align 8, !tbaa !3
  br label %38

32:                                               ; preds = %27
  %33 = call noalias ptr @uprv_malloc_77(i64 noundef 278816) #9
  store ptr %33, ptr %14, align 8, !tbaa !3
  %34 = load ptr, ptr %14, align 8, !tbaa !3
  %35 = icmp eq ptr %34, null
  br i1 %35, label %36, label %37

36:                                               ; preds = %32
  store ptr null, ptr %7, align 8
  store i32 1, ptr %17, align 4
  br label %118

37:                                               ; preds = %32
  br label %38

38:                                               ; preds = %37, %30
  %39 = load ptr, ptr %14, align 8, !tbaa !3
  call void @llvm.memset.p0.i64(ptr align 8 %39, i8 0, i64 278816, i1 false)
  %40 = load ptr, ptr %8, align 8, !tbaa !3
  %41 = icmp eq ptr %40, null
  %42 = zext i1 %41 to i8
  %43 = load ptr, ptr %14, align 8, !tbaa !3
  %44 = getelementptr inbounds nuw %struct.UNewTrie, ptr %43, i32 0, i32 6
  store i8 %42, ptr %44, align 8, !tbaa !13
  %45 = load ptr, ptr %9, align 8, !tbaa !8
  %46 = icmp ne ptr %45, null
  br i1 %46, label %47, label %53

47:                                               ; preds = %38
  %48 = load ptr, ptr %9, align 8, !tbaa !8
  %49 = load ptr, ptr %14, align 8, !tbaa !3
  %50 = getelementptr inbounds nuw %struct.UNewTrie, ptr %49, i32 0, i32 1
  store ptr %48, ptr %50, align 8, !tbaa !15
  %51 = load ptr, ptr %14, align 8, !tbaa !3
  %52 = getelementptr inbounds nuw %struct.UNewTrie, ptr %51, i32 0, i32 7
  store i8 0, ptr %52, align 1, !tbaa !16
  br label %69

53:                                               ; preds = %38
  %54 = load i32, ptr %10, align 4, !tbaa !10
  %55 = mul nsw i32 %54, 4
  %56 = sext i32 %55 to i64
  %57 = call noalias ptr @uprv_malloc_77(i64 noundef %56) #9
  %58 = load ptr, ptr %14, align 8, !tbaa !3
  %59 = getelementptr inbounds nuw %struct.UNewTrie, ptr %58, i32 0, i32 1
  store ptr %57, ptr %59, align 8, !tbaa !15
  %60 = load ptr, ptr %14, align 8, !tbaa !3
  %61 = getelementptr inbounds nuw %struct.UNewTrie, ptr %60, i32 0, i32 1
  %62 = load ptr, ptr %61, align 8, !tbaa !15
  %63 = icmp eq ptr %62, null
  br i1 %63, label %64, label %66

64:                                               ; preds = %53
  %65 = load ptr, ptr %14, align 8, !tbaa !3
  call void @uprv_free_77(ptr noundef %65)
  store ptr null, ptr %7, align 8
  store i32 1, ptr %17, align 4
  br label %118

66:                                               ; preds = %53
  %67 = load ptr, ptr %14, align 8, !tbaa !3
  %68 = getelementptr inbounds nuw %struct.UNewTrie, ptr %67, i32 0, i32 7
  store i8 1, ptr %68, align 1, !tbaa !16
  br label %69

69:                                               ; preds = %66, %47
  store i32 32, ptr %16, align 4, !tbaa !10
  %70 = load i8, ptr %13, align 1, !tbaa !12
  %71 = icmp ne i8 %70, 0
  br i1 %71, label %72, label %87

72:                                               ; preds = %69
  store i32 0, ptr %15, align 4, !tbaa !10
  br label %73

73:                                               ; preds = %83, %72
  %74 = load i32, ptr %16, align 4, !tbaa !10
  %75 = load ptr, ptr %14, align 8, !tbaa !3
  %76 = getelementptr inbounds nuw %struct.UNewTrie, ptr %75, i32 0, i32 0
  %77 = load i32, ptr %15, align 4, !tbaa !10
  %78 = add nsw i32 %77, 1
  store i32 %78, ptr %15, align 4, !tbaa !10
  %79 = sext i32 %77 to i64
  %80 = getelementptr inbounds [34848 x i32], ptr %76, i64 0, i64 %79
  store i32 %74, ptr %80, align 4, !tbaa !10
  %81 = load i32, ptr %16, align 4, !tbaa !10
  %82 = add nsw i32 %81, 32
  store i32 %82, ptr %16, align 4, !tbaa !10
  br label %83

83:                                               ; preds = %73
  %84 = load i32, ptr %15, align 4, !tbaa !10
  %85 = icmp slt i32 %84, 8
  br i1 %85, label %73, label %86, !llvm.loop !17

86:                                               ; preds = %83
  br label %87

87:                                               ; preds = %86, %69
  %88 = load i32, ptr %16, align 4, !tbaa !10
  %89 = load ptr, ptr %14, align 8, !tbaa !3
  %90 = getelementptr inbounds nuw %struct.UNewTrie, ptr %89, i32 0, i32 5
  store i32 %88, ptr %90, align 4, !tbaa !19
  br label %91

91:                                               ; preds = %94, %87
  %92 = load i32, ptr %16, align 4, !tbaa !10
  %93 = icmp sgt i32 %92, 0
  br i1 %93, label %94, label %103

94:                                               ; preds = %91
  %95 = load i32, ptr %11, align 4, !tbaa !10
  %96 = load ptr, ptr %14, align 8, !tbaa !3
  %97 = getelementptr inbounds nuw %struct.UNewTrie, ptr %96, i32 0, i32 1
  %98 = load ptr, ptr %97, align 8, !tbaa !15
  %99 = load i32, ptr %16, align 4, !tbaa !10
  %100 = add nsw i32 %99, -1
  store i32 %100, ptr %16, align 4, !tbaa !10
  %101 = sext i32 %100 to i64
  %102 = getelementptr inbounds i32, ptr %98, i64 %101
  store i32 %95, ptr %102, align 4, !tbaa !10
  br label %91, !llvm.loop !20

103:                                              ; preds = %91
  %104 = load i32, ptr %12, align 4, !tbaa !10
  %105 = load ptr, ptr %14, align 8, !tbaa !3
  %106 = getelementptr inbounds nuw %struct.UNewTrie, ptr %105, i32 0, i32 2
  store i32 %104, ptr %106, align 8, !tbaa !21
  %107 = load ptr, ptr %14, align 8, !tbaa !3
  %108 = getelementptr inbounds nuw %struct.UNewTrie, ptr %107, i32 0, i32 3
  store i32 34816, ptr %108, align 4, !tbaa !22
  %109 = load i32, ptr %10, align 4, !tbaa !10
  %110 = load ptr, ptr %14, align 8, !tbaa !3
  %111 = getelementptr inbounds nuw %struct.UNewTrie, ptr %110, i32 0, i32 4
  store i32 %109, ptr %111, align 8, !tbaa !23
  %112 = load i8, ptr %13, align 1, !tbaa !12
  %113 = load ptr, ptr %14, align 8, !tbaa !3
  %114 = getelementptr inbounds nuw %struct.UNewTrie, ptr %113, i32 0, i32 8
  store i8 %112, ptr %114, align 2, !tbaa !24
  %115 = load ptr, ptr %14, align 8, !tbaa !3
  %116 = getelementptr inbounds nuw %struct.UNewTrie, ptr %115, i32 0, i32 9
  store i8 0, ptr %116, align 1, !tbaa !25
  %117 = load ptr, ptr %14, align 8, !tbaa !3
  store ptr %117, ptr %7, align 8
  store i32 1, ptr %17, align 4
  br label %118

118:                                              ; preds = %103, %64, %36, %26
  call void @llvm.lifetime.end.p0(i64 4, ptr %16) #8
  call void @llvm.lifetime.end.p0(i64 4, ptr %15) #8
  call void @llvm.lifetime.end.p0(i64 8, ptr %14) #8
  %119 = load ptr, ptr %7, align 8
  ret ptr %119
}

; Function Attrs: mustprogress uwtable
define ptr @utrie_clone_77(ptr noundef %0, ptr noundef %1, ptr noundef %2, i32 noundef %3) #0 {
  %5 = alloca ptr, align 8
  %6 = alloca ptr, align 8
  %7 = alloca ptr, align 8
  %8 = alloca ptr, align 8
  %9 = alloca i32, align 4
  %10 = alloca ptr, align 8
  %11 = alloca i8, align 1
  %12 = alloca i32, align 4
  store ptr %0, ptr %6, align 8, !tbaa !3
  store ptr %1, ptr %7, align 8, !tbaa !3
  store ptr %2, ptr %8, align 8, !tbaa !8
  store i32 %3, ptr %9, align 4, !tbaa !10
  call void @llvm.lifetime.start.p0(i64 8, ptr %10) #8
  call void @llvm.lifetime.start.p0(i64 1, ptr %11) #8
  %13 = load ptr, ptr %7, align 8, !tbaa !3
  %14 = icmp eq ptr %13, null
  br i1 %14, label %25, label %15

15:                                               ; preds = %4
  %16 = load ptr, ptr %7, align 8, !tbaa !3
  %17 = getelementptr inbounds nuw %struct.UNewTrie, ptr %16, i32 0, i32 1
  %18 = load ptr, ptr %17, align 8, !tbaa !15
  %19 = icmp eq ptr %18, null
  br i1 %19, label %25, label %20

20:                                               ; preds = %15
  %21 = load ptr, ptr %7, align 8, !tbaa !3
  %22 = getelementptr inbounds nuw %struct.UNewTrie, ptr %21, i32 0, i32 9
  %23 = load i8, ptr %22, align 1, !tbaa !25
  %24 = icmp ne i8 %23, 0
  br i1 %24, label %25, label %26

25:                                               ; preds = %20, %15, %4
  store ptr null, ptr %5, align 8
  store i32 1, ptr %12, align 4
  br label %104

26:                                               ; preds = %20
  %27 = load ptr, ptr %8, align 8, !tbaa !8
  %28 = icmp ne ptr %27, null
  br i1 %28, label %29, label %36

29:                                               ; preds = %26
  %30 = load i32, ptr %9, align 4, !tbaa !10
  %31 = load ptr, ptr %7, align 8, !tbaa !3
  %32 = getelementptr inbounds nuw %struct.UNewTrie, ptr %31, i32 0, i32 4
  %33 = load i32, ptr %32, align 8, !tbaa !23
  %34 = icmp sge i32 %30, %33
  br i1 %34, label %35, label %36

35:                                               ; preds = %29
  store i8 0, ptr %11, align 1, !tbaa !12
  br label %50

36:                                               ; preds = %29, %26
  %37 = load ptr, ptr %7, align 8, !tbaa !3
  %38 = getelementptr inbounds nuw %struct.UNewTrie, ptr %37, i32 0, i32 4
  %39 = load i32, ptr %38, align 8, !tbaa !23
  store i32 %39, ptr %9, align 4, !tbaa !10
  %40 = load ptr, ptr %7, align 8, !tbaa !3
  %41 = getelementptr inbounds nuw %struct.UNewTrie, ptr %40, i32 0, i32 4
  %42 = load i32, ptr %41, align 8, !tbaa !23
  %43 = mul nsw i32 %42, 4
  %44 = sext i32 %43 to i64
  %45 = call noalias ptr @uprv_malloc_77(i64 noundef %44) #9
  store ptr %45, ptr %8, align 8, !tbaa !8
  %46 = load ptr, ptr %8, align 8, !tbaa !8
  %47 = icmp eq ptr %46, null
  br i1 %47, label %48, label %49

48:                                               ; preds = %36
  store ptr null, ptr %5, align 8
  store i32 1, ptr %12, align 4
  br label %104

49:                                               ; preds = %36
  store i8 1, ptr %11, align 1, !tbaa !12
  br label %50

50:                                               ; preds = %49, %35
  %51 = load ptr, ptr %6, align 8, !tbaa !3
  %52 = load ptr, ptr %8, align 8, !tbaa !8
  %53 = load i32, ptr %9, align 4, !tbaa !10
  %54 = load ptr, ptr %7, align 8, !tbaa !3
  %55 = getelementptr inbounds nuw %struct.UNewTrie, ptr %54, i32 0, i32 1
  %56 = load ptr, ptr %55, align 8, !tbaa !15
  %57 = getelementptr inbounds i32, ptr %56, i64 0
  %58 = load i32, ptr %57, align 4, !tbaa !10
  %59 = load ptr, ptr %7, align 8, !tbaa !3
  %60 = getelementptr inbounds nuw %struct.UNewTrie, ptr %59, i32 0, i32 2
  %61 = load i32, ptr %60, align 8, !tbaa !21
  %62 = load ptr, ptr %7, align 8, !tbaa !3
  %63 = getelementptr inbounds nuw %struct.UNewTrie, ptr %62, i32 0, i32 8
  %64 = load i8, ptr %63, align 2, !tbaa !24
  %65 = call ptr @utrie_open_77(ptr noundef %51, ptr noundef %52, i32 noundef %53, i32 noundef %58, i32 noundef %61, i8 noundef signext %64)
  store ptr %65, ptr %10, align 8, !tbaa !3
  %66 = load ptr, ptr %10, align 8, !tbaa !3
  %67 = icmp eq ptr %66, null
  br i1 %67, label %68, label %70

68:                                               ; preds = %50
  %69 = load ptr, ptr %8, align 8, !tbaa !8
  call void @uprv_free_77(ptr noundef %69)
  br label %102

70:                                               ; preds = %50
  br label %71

71:                                               ; preds = %70
  %72 = load ptr, ptr %10, align 8, !tbaa !3
  %73 = getelementptr inbounds nuw %struct.UNewTrie, ptr %72, i32 0, i32 0
  %74 = getelementptr inbounds [34848 x i32], ptr %73, i64 0, i64 0
  %75 = load ptr, ptr %7, align 8, !tbaa !3
  %76 = getelementptr inbounds nuw %struct.UNewTrie, ptr %75, i32 0, i32 0
  %77 = getelementptr inbounds [34848 x i32], ptr %76, i64 0, i64 0
  call void @llvm.memcpy.p0.p0.i64(ptr align 8 %74, ptr align 8 %77, i64 139392, i1 false)
  br label %78

78:                                               ; preds = %71
  br label %79

79:                                               ; preds = %78
  br label %80

80:                                               ; preds = %79
  %81 = load ptr, ptr %10, align 8, !tbaa !3
  %82 = getelementptr inbounds nuw %struct.UNewTrie, ptr %81, i32 0, i32 1
  %83 = load ptr, ptr %82, align 8, !tbaa !15
  %84 = load ptr, ptr %7, align 8, !tbaa !3
  %85 = getelementptr inbounds nuw %struct.UNewTrie, ptr %84, i32 0, i32 1
  %86 = load ptr, ptr %85, align 8, !tbaa !15
  %87 = load ptr, ptr %7, align 8, !tbaa !3
  %88 = getelementptr inbounds nuw %struct.UNewTrie, ptr %87, i32 0, i32 5
  %89 = load i32, ptr %88, align 4, !tbaa !19
  %90 = sext i32 %89 to i64
  %91 = mul i64 %90, 4
  call void @llvm.memcpy.p0.p0.i64(ptr align 4 %83, ptr align 4 %86, i64 %91, i1 false)
  br label %92

92:                                               ; preds = %80
  br label %93

93:                                               ; preds = %92
  %94 = load ptr, ptr %7, align 8, !tbaa !3
  %95 = getelementptr inbounds nuw %struct.UNewTrie, ptr %94, i32 0, i32 5
  %96 = load i32, ptr %95, align 4, !tbaa !19
  %97 = load ptr, ptr %10, align 8, !tbaa !3
  %98 = getelementptr inbounds nuw %struct.UNewTrie, ptr %97, i32 0, i32 5
  store i32 %96, ptr %98, align 4, !tbaa !19
  %99 = load i8, ptr %11, align 1, !tbaa !12
  %100 = load ptr, ptr %10, align 8, !tbaa !3
  %101 = getelementptr inbounds nuw %struct.UNewTrie, ptr %100, i32 0, i32 7
  store i8 %99, ptr %101, align 1, !tbaa !16
  br label %102

102:                                              ; preds = %93, %68
  %103 = load ptr, ptr %10, align 8, !tbaa !3
  store ptr %103, ptr %5, align 8
  store i32 1, ptr %12, align 4
  br label %104

104:                                              ; preds = %102, %48, %25
  call void @llvm.lifetime.end.p0(i64 1, ptr %11) #8
  call void @llvm.lifetime.end.p0(i64 8, ptr %10) #8
  %105 = load ptr, ptr %5, align 8
  ret ptr %105
}