; Function Attrs: mustprogress uwtable
define noundef ptr @utrie_clone_77(ptr noundef writeonly %0, ptr noundef readonly %1, ptr noundef %2, i32 noundef %3) local_unnamed_addr #0 {
  %5 = icmp eq ptr %1, null
  br i1 %5, label %59, label %6

6:                                                ; preds = %4
  %7 = getelementptr inbounds nuw i8, ptr %1, i64 139392
  %8 = load ptr, ptr %7, align 8, !tbaa !10
  %9 = icmp eq ptr %8, null
  br i1 %9, label %59, label %10

10:                                               ; preds = %6
  %11 = getelementptr inbounds nuw i8, ptr %1, i64 139419
  %12 = load i8, ptr %11, align 1, !tbaa !21
  %.not = icmp eq i8 %12, 0
  br i1 %.not, label %13, label %59

13:                                               ; preds = %10
  %.not35 = icmp eq ptr %2, null
  %.phi.trans.insert = getelementptr inbounds nuw i8, ptr %1, i64 139408
  %.pre = load i32, ptr %.phi.trans.insert, align 8, !tbaa !19
  %.not36 = icmp slt i32 %3, %.pre
  %or.cond = select i1 %.not35, i1 true, i1 %.not36
  br i1 %or.cond, label %._crit_edge, label %18

._crit_edge:                                      ; preds = %13
  %14 = shl nsw i32 %.pre, 2
  %15 = sext i32 %14 to i64
  %16 = tail call noalias ptr @uprv_malloc_77(i64 noundef %15) #14
  %17 = icmp eq ptr %16, null
  br i1 %17, label %59, label %._crit_edge39

._crit_edge39:                                    ; preds = %._crit_edge
  %.pre40 = load ptr, ptr %7, align 8, !tbaa !10
  br label %18

18:                                               ; preds = %13, %._crit_edge39
  %19 = phi ptr [ %.pre40, %._crit_edge39 ], [ %8, %13 ]
  %20 = phi ptr [ %16, %._crit_edge39 ], [ %2, %13 ]
  %.028 = phi i32 [ %.pre, %._crit_edge39 ], [ %3, %13 ]
  %.0 = phi i8 [ 1, %._crit_edge39 ], [ 0, %13 ]
  %21 = load i32, ptr %19, align 4, !tbaa !12
  %22 = getelementptr inbounds nuw i8, ptr %1, i64 139400
  %23 = load i32, ptr %22, align 8, !tbaa !17
  %24 = getelementptr inbounds nuw i8, ptr %1, i64 139418
  %25 = load i8, ptr %24, align 2, !tbaa !20
  %26 = icmp slt i32 %.028, 32
  br i1 %26, label %46, label %27

27:                                               ; preds = %18
  %28 = icmp ne i8 %25, 0
  %29 = icmp samesign ult i32 %.028, 1024
  %or.cond.i = and i1 %29, %28
  br i1 %or.cond.i, label %46, label %30

30:                                               ; preds = %27
  %.not.i = icmp eq ptr %0, null
  br i1 %.not.i, label %31, label %34

31:                                               ; preds = %30
  %32 = tail call noalias dereferenceable_or_null(278816) ptr @uprv_malloc_77(i64 noundef 278816) #14
  %33 = icmp eq ptr %32, null
  br i1 %33, label %46, label %34

34:                                               ; preds = %31, %30
  %.041.i = phi ptr [ %32, %31 ], [ %0, %30 ]
  tail call void @llvm.memset.p0.i64(ptr noundef nonnull align 8 dereferenceable(278816) %.041.i, i8 0, i64 278816, i1 false)
  %35 = zext i1 %.not.i to i8
  %36 = getelementptr inbounds nuw i8, ptr %.041.i, i64 139416
  store i8 %35, ptr %36, align 8, !tbaa !3
  %37 = getelementptr inbounds nuw i8, ptr %.041.i, i64 139392
  store ptr %20, ptr %37, align 8, !tbaa !10
  %38 = getelementptr inbounds nuw i8, ptr %.041.i, i64 139417
  br i1 %28, label %.preheader.i, label %.loopexit.i

.preheader.i:                                     ; preds = %34, %.preheader.i
  %indvars.iv.i = phi i64 [ %indvars.iv.next.i, %.preheader.i ], [ 0, %34 ]
  %.1.i = phi i32 [ %40, %.preheader.i ], [ 32, %34 ]
  %indvars.iv.next.i = add nuw nsw i64 %indvars.iv.i, 1
  %39 = getelementptr inbounds nuw [34848 x i32], ptr %.041.i, i64 0, i64 %indvars.iv.i
  store i32 %.1.i, ptr %39, align 4, !tbaa !12
  %40 = add nuw nsw i32 %.1.i, 32
  %exitcond.not.i = icmp eq i64 %indvars.iv.next.i, 8
  br i1 %exitcond.not.i, label %.loopexit.i, label %.preheader.i, !llvm.loop !13

.loopexit.i:                                      ; preds = %.preheader.i, %34
  %.0.i = phi i32 [ 32, %34 ], [ 288, %.preheader.i ]
  %41 = getelementptr inbounds nuw i8, ptr %.041.i, i64 139412
  store i32 %.0.i, ptr %41, align 4, !tbaa !15
  %42 = zext nneg i32 %.0.i to i64
  br label %43

43:                                               ; preds = %43, %.loopexit.i
  %indvars.iv50.i = phi i64 [ %42, %.loopexit.i ], [ %indvars.iv.next51.i, %43 ]
  %indvars.iv.next51.i = add nsw i64 %indvars.iv50.i, -1
  %44 = getelementptr inbounds nuw i32, ptr %20, i64 %indvars.iv.next51.i
  store i32 %21, ptr %44, align 4, !tbaa !12
  %45 = icmp samesign ugt i64 %indvars.iv50.i, 1
  br i1 %45, label %43, label %47, !llvm.loop !16

46:                                               ; preds = %27, %18, %31
  tail call void @uprv_free_77(ptr noundef nonnull %20)
  br label %59

47:                                               ; preds = %43
  %48 = getelementptr inbounds nuw i8, ptr %.041.i, i64 139400
  store i32 %23, ptr %48, align 8, !tbaa !17
  %49 = getelementptr inbounds nuw i8, ptr %.041.i, i64 139404
  store i32 34816, ptr %49, align 4, !tbaa !18
  %50 = getelementptr inbounds nuw i8, ptr %.041.i, i64 139408
  store i32 %.028, ptr %50, align 8, !tbaa !19
  %51 = getelementptr inbounds nuw i8, ptr %.041.i, i64 139418
  store i8 %25, ptr %51, align 2, !tbaa !20
  %52 = getelementptr inbounds nuw i8, ptr %.041.i, i64 139419
  store i8 0, ptr %52, align 1, !tbaa !21
  tail call void @llvm.memcpy.p0.p0.i64(ptr noundef nonnull align 8 dereferenceable(139392) %.041.i, ptr noundef nonnull align 8 dereferenceable(139392) %1, i64 139392, i1 false)
  %53 = load ptr, ptr %7, align 8, !tbaa !10
  %54 = getelementptr inbounds nuw i8, ptr %1, i64 139412
  %55 = load i32, ptr %54, align 4, !tbaa !15
  %56 = sext i32 %55 to i64
  %57 = shl nsw i64 %56, 2
  tail call void @llvm.memcpy.p0.p0.i64(ptr nonnull align 4 %20, ptr align 4 %53, i64 %57, i1 false)
  %58 = load i32, ptr %54, align 4, !tbaa !15
  store i32 %58, ptr %41, align 4, !tbaa !15
  store i8 %.0, ptr %38, align 1, !tbaa !11
  br label %59

59:                                               ; preds = %46, %47, %._crit_edge, %4, %6, %10
  %.027 = phi ptr [ null, %10 ], [ null, %6 ], [ null, %4 ], [ null, %._crit_edge ], [ %.041.i, %47 ], [ null, %46 ]
  ret ptr %.027
}